target datalayout = "e-m:e-p270:32:32-p271:32:32-p272:64:64-i64:64-i128:128-f80:128-n8:16:32:64-S128"
target triple = "x86_64-pc-linux-gnu"

%struct.gmx_ana_index_t = type { i32, ptr, i32 }

; Function Attrs: mustprogress nounwind uwtable
define void @_Z26gmx_ana_index_intersectionP15gmx_ana_index_tS0_S0_(ptr noundef %0, ptr noundef %1, ptr noundef %2) #1 {
  %4 = alloca ptr, align 8
  %5 = alloca ptr, align 8
  %6 = alloca ptr, align 8
  %7 = alloca i32, align 4
  %8 = alloca i32, align 4
  %9 = alloca i32, align 4
  store ptr %0, ptr %4, align 8, !tbaa !232
  store ptr %1, ptr %5, align 8, !tbaa !232
  store ptr %2, ptr %6, align 8, !tbaa !232
  call void @llvm.lifetime.start.p0(i64 4, ptr %7) #19
  call void @llvm.lifetime.start.p0(i64 4, ptr %8) #19
  call void @llvm.lifetime.start.p0(i64 4, ptr %9) #19
  store i32 0, ptr %9, align 4, !tbaa !114
  store i32 0, ptr %8, align 4, !tbaa !114
  store i32 0, ptr %7, align 4, !tbaa !114
  br label %10

10:                                               ; preds = %91, %3
  %11 = load i32, ptr %7, align 4, !tbaa !114
  %12 = load ptr, ptr %5, align 8, !tbaa !232
  %13 = getelementptr inbounds nuw %struct.gmx_ana_index_t, ptr %12, i32 0, i32 0
  %14 = load i32, ptr %13, align 8, !tbaa !234
  %15 = icmp slt i32 %11, %14
  br i1 %15, label %16, label %22

16:                                               ; preds = %10
  %17 = load i32, ptr %8, align 4, !tbaa !114
  %18 = load ptr, ptr %6, align 8, !tbaa !232
  %19 = getelementptr inbounds nuw %struct.gmx_ana_index_t, ptr %18, i32 0, i32 0
  %20 = load i32, ptr %19, align 8, !tbaa !234
  %21 = icmp slt i32 %17, %20
  br label %22

22:                                               ; preds = %16, %10
  %23 = phi i1 [ false, %10 ], [ %21, %16 ]
  br i1 %23, label %24, label %94

24:                                               ; preds = %22
  br label %25

25:                                               ; preds = %49, %24
  %26 = load i32, ptr %8, align 4, !tbaa !114
  %27 = load ptr, ptr %6, align 8, !tbaa !232
  %28 = getelementptr inbounds nuw %struct.gmx_ana_index_t, ptr %27, i32 0, i32 0
  %29 = load i32, ptr %28, align 8, !tbaa !234
  %30 = icmp slt i32 %26, %29
  br i1 %30, label %31, label %47

31:                                               ; preds = %25
  %32 = load ptr, ptr %6, align 8, !tbaa !232
  %33 = getelementptr inbounds nuw %struct.gmx_ana_index_t, ptr %32, i32 0, i32 1
  %34 = load ptr, ptr %33, align 8, !tbaa !236
  %35 = load i32, ptr %8, align 4, !tbaa !114
  %36 = sext i32 %35 to i64
  %37 = getelementptr inbounds i32, ptr %34, i64 %36
  %38 = load i32, ptr %37, align 4, !tbaa !114
  %39 = load ptr, ptr %5, align 8, !tbaa !232
  %40 = getelementptr inbounds nuw %struct.gmx_ana_index_t, ptr %39, i32 0, i32 1
  %41 = load ptr, ptr %40, align 8, !tbaa !236
  %42 = load i32, ptr %7, align 4, !tbaa !114
  %43 = sext i32 %42 to i64
  %44 = getelementptr inbounds i32, ptr %41, i64 %43
  %45 = load i32, ptr %44, align 4, !tbaa !114
  %46 = icmp slt i32 %38, %45
  br label %47

47:                                               ; preds = %31, %25
  %48 = phi i1 [ false, %25 ], [ %46, %31 ]
  br i1 %48, label %49, label %52

49:                                               ; preds = %47
  %50 = load i32, ptr %8, align 4, !tbaa !114
  %51 = add nsw i32 %50, 1
  store i32 %51, ptr %8, align 4, !tbaa !114
  br label %25, !llvm.loop !334

52:                                               ; preds = %47
  %53 = load i32, ptr %8, align 4, !tbaa !114
  %54 = load ptr, ptr %6, align 8, !tbaa !232
  %55 = getelementptr inbounds nuw %struct.gmx_ana_index_t, ptr %54, i32 0, i32 0
  %56 = load i32, ptr %55, align 8, !tbaa !234
  %57 = icmp slt i32 %53, %56
  br i1 %57, label %58, label %90

58:                                               ; preds = %52
  %59 = load ptr, ptr %6, align 8, !tbaa !232
  %60 = getelementptr inbounds nuw %struct.gmx_ana_index_t, ptr %59, i32 0, i32 1
  %61 = load ptr, ptr %60, align 8, !tbaa !236
  %62 = load i32, ptr %8, align 4, !tbaa !114
  %63 = sext i32 %62 to i64
  %64 = getelementptr inbounds i32, ptr %61, i64 %63
  %65 = load i32, ptr %64, align 4, !tbaa !114
  %66 = load ptr, ptr %5, align 8, !tbaa !232
  %67 = getelementptr inbounds nuw %struct.gmx_ana_index_t, ptr %66, i32 0, i32 1
  %68 = load ptr, ptr %67, align 8, !tbaa !236
  %69 = load i32, ptr %7, align 4, !tbaa !114
  %70 = sext i32 %69 to i64
  %71 = getelementptr inbounds i32, ptr %68, i64 %70
  %72 = load i32, ptr %71, align 4, !tbaa !114
  %73 = icmp eq i32 %65, %72
  br i1 %73, label %74, label %90

74:                                               ; preds = %58
  %75 = load ptr, ptr %6, align 8, !tbaa !232
  %76 = getelementptr inbounds nuw %struct.gmx_ana_index_t, ptr %75, i32 0, i32 1
  %77 = load ptr, ptr %76, align 8, !tbaa !236
  %78 = load i32, ptr %8, align 4, !tbaa !114
  %79 = add nsw i32 %78, 1
  store i32 %79, ptr %8, align 4, !tbaa !114
  %80 = sext i32 %78 to i64
  %81 = getelementptr inbounds i32, ptr %77, i64 %80
  %82 = load i32, ptr %81, align 4, !tbaa !114
  %83 = load ptr, ptr %4, align 8, !tbaa !232
  %84 = getelementptr inbounds nuw %struct.gmx_ana_index_t, ptr %83, i32 0, i32 1
  %85 = load ptr, ptr %84, align 8, !tbaa !236
  %86 = load i32, ptr %9, align 4, !tbaa !114
  %87 = add nsw i32 %86, 1
  store i32 %87, ptr %9, align 4, !tbaa !114
  %88 = sext i32 %86 to i64
  %89 = getelementptr inbounds i32, ptr %85, i64 %88
  store i32 %82, ptr %89, align 4, !tbaa !114
  br label %90

90:                                               ; preds = %74, %58, %52
  br label %91

91:                                               ; preds = %90
  %92 = load i32, ptr %7, align 4, !tbaa !114
  %93 = add nsw i32 %92, 1
  store i32 %93, ptr %7, align 4, !tbaa !114
  br label %10, !llvm.loop !335

94:                                               ; preds = %22
  %95 = load i32, ptr %9, align 4, !tbaa !114
  %96 = load ptr, ptr %4, align 8, !tbaa !232
  %97 = getelementptr inbounds nuw %struct.gmx_ana_index_t, ptr %96, i32 0, i32 0
  store i32 %95, ptr %97, align 8, !tbaa !234
  call void @llvm.lifetime.end.p0(i64 4, ptr %9) #19
  call void @llvm.lifetime.end.p0(i64 4, ptr %8) #19
  call void @llvm.lifetime.end.p0(i64 4, ptr %7) #19
  ret void
}