; Function Attrs: mustprogress nofree norecurse nosync nounwind memory(readwrite, inaccessiblemem: none) uwtable
define void @_Z26gmx_ana_index_intersectionP15gmx_ana_index_tS0_S0_(ptr noundef captures(none) %0, ptr noundef readonly captures(none) %1, ptr noundef readonly captures(none) %2) local_unnamed_addr #20 {
  %4 = load i32, ptr %1, align 8, !tbaa !73
  %5 = icmp sgt i32 %4, 0
  br i1 %5, label %.lr.ph, label %.critedge

.lr.ph:                                           ; preds = %3
  %6 = getelementptr inbounds nuw i8, ptr %2, i64 8
  %7 = getelementptr inbounds nuw i8, ptr %1, i64 8
  %8 = getelementptr inbounds nuw i8, ptr %0, i64 8
  br label %9

9:                                                ; preds = %.lr.ph, %.critedge2
  %10 = phi i32 [ %4, %.lr.ph ], [ %35, %.critedge2 ]
  %indvars.iv38 = phi i64 [ 0, %.lr.ph ], [ %indvars.iv.next39, %.critedge2 ]
  %.033 = phi i32 [ 0, %.lr.ph ], [ %.1, %.critedge2 ]
  %.02532 = phi i32 [ 0, %.lr.ph ], [ %.2, %.critedge2 ]
  %11 = load i32, ptr %2, align 8, !tbaa !73
  %12 = icmp slt i32 %.02532, %11
  br i1 %12, label %.preheader, label %.critedge

.preheader:                                       ; preds = %9
  %13 = load ptr, ptr %6, align 8, !tbaa !108
  %14 = load ptr, ptr %7, align 8, !tbaa !108
  %15 = getelementptr inbounds nuw i32, ptr %14, i64 %indvars.iv38
  %16 = load i32, ptr %15, align 4, !tbaa !36
  %17 = sext i32 %.02532 to i64
  br label %18

18:                                               ; preds = %.preheader, %22
  %indvars.iv = phi i64 [ %17, %.preheader ], [ %indvars.iv.next, %22 ]
  %19 = getelementptr inbounds i32, ptr %13, i64 %indvars.iv
  %20 = load i32, ptr %19, align 4, !tbaa !36
  %21 = icmp slt i32 %20, %16
  br i1 %21, label %22, label %23

22:                                               ; preds = %18
  %indvars.iv.next = add nsw i64 %indvars.iv, 1
  %lftr.wideiv = trunc i64 %indvars.iv.next to i32
  %exitcond.not = icmp eq i32 %11, %lftr.wideiv
  br i1 %exitcond.not, label %.critedge2, label %18, !llvm.loop !131

23:                                               ; preds = %18
  %24 = trunc nsw i64 %indvars.iv to i32
  %sext = shl i64 %indvars.iv, 32
  %25 = ashr exact i64 %sext, 30
  %26 = getelementptr inbounds i8, ptr %13, i64 %25
  %27 = load i32, ptr %26, align 4, !tbaa !36
  %28 = icmp eq i32 %27, %16
  br i1 %28, label %29, label %.critedge2

29:                                               ; preds = %23
  %30 = add nsw i32 %24, 1
  %31 = load ptr, ptr %8, align 8, !tbaa !108
  %32 = add nsw i32 %.033, 1
  %33 = sext i32 %.033 to i64
  %34 = getelementptr inbounds i32, ptr %31, i64 %33
  store i32 %16, ptr %34, align 4, !tbaa !36
  %.pre = load i32, ptr %1, align 8, !tbaa !73
  br label %.critedge2

.critedge2:                                       ; preds = %22, %23, %29
  %35 = phi i32 [ %.pre, %29 ], [ %10, %23 ], [ %10, %22 ]
  %.2 = phi i32 [ %30, %29 ], [ %24, %23 ], [ %11, %22 ]
  %.1 = phi i32 [ %32, %29 ], [ %.033, %23 ], [ %.033, %22 ]
  %indvars.iv.next39 = add nuw nsw i64 %indvars.iv38, 1
  %36 = sext i32 %35 to i64
  %37 = icmp slt i64 %indvars.iv.next39, %36
  br i1 %37, label %9, label %.critedge, !llvm.loop !132

.critedge:                                        ; preds = %9, %.critedge2, %3
  %.0.lcssa = phi i32 [ 0, %3 ], [ %.1, %.critedge2 ], [ %.033, %9 ]
  store i32 %.0.lcssa, ptr %0, align 8, !tbaa !73
  ret void
}